target datalayout = "e-m:e-p270:32:32-p271:32:32-p272:64:64-i64:64-i128:128-f80:128-n8:16:32:64-S128"
target triple = "x86_64-pc-linux-gnu"

%"class.vas::ot::RgbHistogram" = type <{ ptr, i32, i32, i32, [4 x i8] }>
%"class.cv::Mat" = type { i32, i32, i32, i32, ptr, ptr, ptr, ptr, ptr, ptr, %"struct.cv::MatSize", %"struct.cv::MatStep" }
%"struct.cv::MatSize" = type { ptr }
%"struct.cv::MatStep" = type { ptr, [2 x i64] }
%"class.cv::Vec.2" = type { %"class.cv::Matx.3" }
%"class.cv::Matx.3" = type { [4 x i8] }

; Function Attrs: inlinehint mustprogress nounwind uwtable
define linkonce_odr hidden noundef nonnull align 1 dereferenceable(1) ptr @_ZNK2cv3VecIhLi4EEixEi(ptr noundef nonnull align 1 dereferenceable(4) %0, i32 noundef %1) #7 comdat align 2 {
  %3 = alloca ptr, align 8
  %4 = alloca i32, align 4
  store ptr %0, ptr %3, align 8, !tbaa !46
  store i32 %1, ptr %4, align 4, !tbaa !8
  %5 = load ptr, ptr %3, align 8
  %6 = getelementptr inbounds nuw %"class.cv::Matx.3", ptr %5, i32 0, i32 0
  %7 = load i32, ptr %4, align 4, !tbaa !8
  %8 = sext i32 %7 to i64
  %9 = getelementptr inbounds [4 x i8], ptr %6, i64 0, i64 %8
  ret ptr %9
}

; Function Attrs: inlinehint mustprogress nounwind uwtable
define linkonce_odr hidden noundef ptr @_ZNK2cv3Mat3ptrIfEEPKT_i(ptr noundef nonnull align 8 dereferenceable(96) %0, i32 noundef %1) #7 comdat align 2 {
  %3 = alloca ptr, align 8
  %4 = alloca i32, align 4
  store ptr %0, ptr %3, align 8, !tbaa !16
  store i32 %1, ptr %4, align 4, !tbaa !8
  %5 = load ptr, ptr %3, align 8
  %6 = getelementptr inbounds nuw %"class.cv::Mat", ptr %5, i32 0, i32 4
  %7 = load ptr, ptr %6, align 8, !tbaa !24
  %8 = getelementptr inbounds nuw %"class.cv::Mat", ptr %5, i32 0, i32 11
  %9 = getelementptr inbounds nuw %"struct.cv::MatStep", ptr %8, i32 0, i32 0
  %10 = load ptr, ptr %9, align 8, !tbaa !33
  %11 = getelementptr inbounds i64, ptr %10, i64 0
  %12 = load i64, ptr %11, align 8, !tbaa !34
  %13 = load i32, ptr %4, align 4, !tbaa !8
  %14 = sext i32 %13 to i64
  %15 = mul i64 %12, %14
  %16 = getelementptr inbounds nuw i8, ptr %7, i64 %15
  ret ptr %16
}

; Function Attrs: inlinehint mustprogress nounwind uwtable
define linkonce_odr hidden noundef ptr @_ZNK2cv3Mat3ptrINS_3VecIhLi4EEEEEPKT_i(ptr noundef nonnull align 8 dereferenceable(96) %0, i32 noundef %1) #7 comdat align 2 {
  %3 = alloca ptr, align 8
  %4 = alloca i32, align 4
  store ptr %0, ptr %3, align 8, !tbaa !16
  store i32 %1, ptr %4, align 4, !tbaa !8
  %5 = load ptr, ptr %3, align 8
  %6 = getelementptr inbounds nuw %"class.cv::Mat", ptr %5, i32 0, i32 4
  %7 = load ptr, ptr %6, align 8, !tbaa !24
  %8 = getelementptr inbounds nuw %"class.cv::Mat", ptr %5, i32 0, i32 11
  %9 = getelementptr inbounds nuw %"struct.cv::MatStep", ptr %8, i32 0, i32 0
  %10 = load ptr, ptr %9, align 8, !tbaa !33
  %11 = getelementptr inbounds i64, ptr %10, i64 0
  %12 = load i64, ptr %11, align 8, !tbaa !34
  %13 = load i32, ptr %4, align 4, !tbaa !8
  %14 = sext i32 %13 to i64
  %15 = mul i64 %12, %14
  %16 = getelementptr inbounds nuw i8, ptr %7, i64 %15
  ret ptr %16
}

; Function Attrs: mustprogress uwtable
define hidden void @_ZNK3vas2ot12RgbHistogram32AccumulateRgbHistogramFromBgra32ERKN2cv3MatES5_Pf(ptr noundef nonnull align 8 dereferenceable(20) %0, ptr noundef nonnull align 8 dereferenceable(96) %1, ptr noundef nonnull align 8 dereferenceable(96) %2, ptr noundef %3) #3 align 2 {
  %5 = alloca ptr, align 8
  %6 = alloca ptr, align 8
  %7 = alloca ptr, align 8
  %8 = alloca ptr, align 8
  %9 = alloca i32, align 4
  %10 = alloca i32, align 4
  %11 = alloca ptr, align 8
  %12 = alloca ptr, align 8
  %13 = alloca i32, align 4
  %14 = alloca i32, align 4
  %15 = alloca i32, align 4
  %16 = alloca i32, align 4
  %17 = alloca i32, align 4
  store ptr %0, ptr %5, align 8, !tbaa !3
  store ptr %1, ptr %6, align 8, !tbaa !16
  store ptr %2, ptr %7, align 8, !tbaa !16
  store ptr %3, ptr %8, align 8, !tbaa !18
  %18 = load ptr, ptr %5, align 8
  call void @llvm.lifetime.start.p0(i64 4, ptr %9) #8
  store i32 0, ptr %9, align 4, !tbaa !8
  br label %19

19:                                               ; preds = %97, %4
  %20 = load i32, ptr %9, align 4, !tbaa !8
  %21 = load ptr, ptr %6, align 8, !tbaa !16
  %22 = getelementptr inbounds nuw %"class.cv::Mat", ptr %21, i32 0, i32 2
  %23 = load i32, ptr %22, align 8, !tbaa !36
  %24 = icmp slt i32 %20, %23
  br i1 %24, label %26, label %25

25:                                               ; preds = %19
  store i32 2, ptr %10, align 4
  call void @llvm.lifetime.end.p0(i64 4, ptr %9) #8
  br label %100

26:                                               ; preds = %19
  call void @llvm.lifetime.start.p0(i64 8, ptr %11) #8
  %27 = load ptr, ptr %6, align 8, !tbaa !16
  %28 = load i32, ptr %9, align 4, !tbaa !8
  %29 = call noundef ptr @_ZNK2cv3Mat3ptrINS_3VecIhLi4EEEEEPKT_i(ptr noundef nonnull align 8 dereferenceable(96) %27, i32 noundef %28)
  store ptr %29, ptr %11, align 8, !tbaa !46
  call void @llvm.lifetime.start.p0(i64 8, ptr %12) #8
  %30 = load ptr, ptr %7, align 8, !tbaa !16
  %31 = load i32, ptr %9, align 4, !tbaa !8
  %32 = call noundef ptr @_ZNK2cv3Mat3ptrIfEEPKT_i(ptr noundef nonnull align 8 dereferenceable(96) %30, i32 noundef %31)
  store ptr %32, ptr %12, align 8, !tbaa !18
  call void @llvm.lifetime.start.p0(i64 4, ptr %13) #8
  store i32 0, ptr %13, align 4, !tbaa !8
  br label %33

33:                                               ; preds = %93, %26
  %34 = load i32, ptr %13, align 4, !tbaa !8
  %35 = load ptr, ptr %6, align 8, !tbaa !16
  %36 = getelementptr inbounds nuw %"class.cv::Mat", ptr %35, i32 0, i32 3
  %37 = load i32, ptr %36, align 4, !tbaa !39
  %38 = icmp slt i32 %34, %37
  br i1 %38, label %40, label %39

39:                                               ; preds = %33
  store i32 5, ptr %10, align 4
  call void @llvm.lifetime.end.p0(i64 4, ptr %13) #8
  br label %96

40:                                               ; preds = %33
  call void @llvm.lifetime.start.p0(i64 4, ptr %14) #8
  %41 = load ptr, ptr %11, align 8, !tbaa !46
  %42 = load i32, ptr %13, align 4, !tbaa !8
  %43 = sext i32 %42 to i64
  %44 = getelementptr inbounds %"class.cv::Vec.2", ptr %41, i64 %43
  %45 = call noundef nonnull align 1 dereferenceable(1) ptr @_ZNK2cv3VecIhLi4EEixEi(ptr noundef nonnull align 1 dereferenceable(4) %44, i32 noundef 0)
  %46 = load i8, ptr %45, align 1, !tbaa !40
  %47 = zext i8 %46 to i32
  %48 = getelementptr inbounds nuw %"class.vas::ot::RgbHistogram", ptr %18, i32 0, i32 1
  %49 = load i32, ptr %48, align 8, !tbaa !12
  %50 = sdiv i32 %47, %49
  store i32 %50, ptr %14, align 4, !tbaa !8
  call void @llvm.lifetime.start.p0(i64 4, ptr %15) #8
  %51 = load ptr, ptr %11, align 8, !tbaa !46
  %52 = load i32, ptr %13, align 4, !tbaa !8
  %53 = sext i32 %52 to i64
  %54 = getelementptr inbounds %"class.cv::Vec.2", ptr %51, i64 %53
  %55 = call noundef nonnull align 1 dereferenceable(1) ptr @_ZNK2cv3VecIhLi4EEixEi(ptr noundef nonnull align 1 dereferenceable(4) %54, i32 noundef 1)
  %56 = load i8, ptr %55, align 1, !tbaa !40
  %57 = zext i8 %56 to i32
  %58 = getelementptr inbounds nuw %"class.vas::ot::RgbHistogram", ptr %18, i32 0, i32 1
  %59 = load i32, ptr %58, align 8, !tbaa !12
  %60 = sdiv i32 %57, %59
  store i32 %60, ptr %15, align 4, !tbaa !8
  call void @llvm.lifetime.start.p0(i64 4, ptr %16) #8
  %61 = load ptr, ptr %11, align 8, !tbaa !46
  %62 = load i32, ptr %13, align 4, !tbaa !8
  %63 = sext i32 %62 to i64
  %64 = getelementptr inbounds %"class.cv::Vec.2", ptr %61, i64 %63
  %65 = call noundef nonnull align 1 dereferenceable(1) ptr @_ZNK2cv3VecIhLi4EEixEi(ptr noundef nonnull align 1 dereferenceable(4) %64, i32 noundef 2)
  %66 = load i8, ptr %65, align 1, !tbaa !40
  %67 = zext i8 %66 to i32
  %68 = getelementptr inbounds nuw %"class.vas::ot::RgbHistogram", ptr %18, i32 0, i32 1
  %69 = load i32, ptr %68, align 8, !tbaa !12
  %70 = sdiv i32 %67, %69
  store i32 %70, ptr %16, align 4, !tbaa !8
  call void @llvm.lifetime.start.p0(i64 4, ptr %17) #8
  %71 = getelementptr inbounds nuw %"class.vas::ot::RgbHistogram", ptr %18, i32 0, i32 2
  %72 = load i32, ptr %71, align 4, !tbaa !14
  %73 = getelementptr inbounds nuw %"class.vas::ot::RgbHistogram", ptr %18, i32 0, i32 2
  %74 = load i32, ptr %73, align 4, !tbaa !14
  %75 = load i32, ptr %14, align 4, !tbaa !8
  %76 = mul nsw i32 %74, %75
  %77 = load i32, ptr %15, align 4, !tbaa !8
  %78 = add nsw i32 %76, %77
  %79 = mul nsw i32 %72, %78
  %80 = load i32, ptr %16, align 4, !tbaa !8
  %81 = add nsw i32 %79, %80
  store i32 %81, ptr %17, align 4, !tbaa !8
  %82 = load ptr, ptr %12, align 8, !tbaa !18
  %83 = load i32, ptr %13, align 4, !tbaa !8
  %84 = sext i32 %83 to i64
  %85 = getelementptr inbounds float, ptr %82, i64 %84
  %86 = load float, ptr %85, align 4, !tbaa !41
  %87 = load ptr, ptr %8, align 8, !tbaa !18
  %88 = load i32, ptr %17, align 4, !tbaa !8
  %89 = sext i32 %88 to i64
  %90 = getelementptr inbounds float, ptr %87, i64 %89
  %91 = load float, ptr %90, align 4, !tbaa !41
  %92 = fadd float %91, %86
  store float %92, ptr %90, align 4, !tbaa !41
  call void @llvm.lifetime.end.p0(i64 4, ptr %17) #8
  call void @llvm.lifetime.end.p0(i64 4, ptr %16) #8
  call void @llvm.lifetime.end.p0(i64 4, ptr %15) #8
  call void @llvm.lifetime.end.p0(i64 4, ptr %14) #8
  br label %93

93:                                               ; preds = %40
  %94 = load i32, ptr %13, align 4, !tbaa !8
  %95 = add nsw i32 %94, 1
  store i32 %95, ptr %13, align 4, !tbaa !8
  br label %33, !llvm.loop !53

96:                                               ; preds = %39
  call void @llvm.lifetime.end.p0(i64 8, ptr %12) #8
  call void @llvm.lifetime.end.p0(i64 8, ptr %11) #8
  br label %97

97:                                               ; preds = %96
  %98 = load i32, ptr %9, align 4, !tbaa !8
  %99 = add nsw i32 %98, 1
  store i32 %99, ptr %9, align 4, !tbaa !8
  br label %19, !llvm.loop !54

100:                                              ; preds = %25
  ret void
}