; Function Attrs: mustprogress nofree norecurse nosync nounwind memory(read, argmem: readwrite, inaccessiblemem: none) uwtable
define hidden void @_ZNK3vas2ot12RgbHistogram32AccumulateRgbHistogramFromBgra32ERKN2cv3MatES5_Pf(ptr noundef nonnull readonly align 8 captures(none) dereferenceable(20) %0, ptr noundef nonnull readonly align 8 captures(none) dereferenceable(96) %1, ptr noundef nonnull readonly align 8 captures(none) dereferenceable(96) %2, ptr noundef captures(none) %3) local_unnamed_addr #8 align 2 {
  %5 = getelementptr inbounds nuw i8, ptr %1, i64 8
  %6 = load i32, ptr %5, align 8, !tbaa !23
  %7 = icmp sgt i32 %6, 0
  br i1 %7, label %.lr.ph27, label %._crit_edge28

.lr.ph27:                                         ; preds = %4
  %8 = getelementptr inbounds nuw i8, ptr %1, i64 16
  %9 = load ptr, ptr %8, align 8, !tbaa !13
  %10 = getelementptr inbounds nuw i8, ptr %1, i64 72
  %11 = load ptr, ptr %10, align 8, !tbaa !24
  %12 = load i64, ptr %11, align 8, !tbaa !25
  %13 = getelementptr inbounds nuw i8, ptr %2, i64 16
  %14 = load ptr, ptr %13, align 8, !tbaa !13
  %15 = getelementptr inbounds nuw i8, ptr %2, i64 72
  %16 = load ptr, ptr %15, align 8, !tbaa !24
  %17 = load i64, ptr %16, align 8, !tbaa !25
  %18 = getelementptr inbounds nuw i8, ptr %1, i64 12
  %19 = load i32, ptr %18, align 4, !tbaa !27
  %20 = icmp sgt i32 %19, 0
  %21 = getelementptr inbounds nuw i8, ptr %0, i64 8
  %22 = load i32, ptr %21, align 8
  %23 = getelementptr inbounds nuw i8, ptr %0, i64 12
  %24 = load i32, ptr %23, align 4
  br i1 %20, label %.lr.ph.us.preheader, label %._crit_edge28

.lr.ph.us.preheader:                              ; preds = %.lr.ph27
  %wide.trip.count34 = zext nneg i32 %6 to i64
  %wide.trip.count = zext nneg i32 %19 to i64
  br label %.lr.ph.us

.lr.ph.us:                                        ; preds = %.lr.ph.us.preheader, %._crit_edge.us
  %indvars.iv31 = phi i64 [ 0, %.lr.ph.us.preheader ], [ %indvars.iv.next32, %._crit_edge.us ]
  %25 = mul i64 %12, %indvars.iv31
  %26 = getelementptr inbounds nuw i8, ptr %9, i64 %25
  %27 = mul i64 %17, %indvars.iv31
  %28 = getelementptr inbounds nuw i8, ptr %14, i64 %27
  br label %29

29:                                               ; preds = %.lr.ph.us, %29
  %indvars.iv = phi i64 [ 0, %.lr.ph.us ], [ %indvars.iv.next, %29 ]
  %30 = getelementptr inbounds nuw %"class.cv::Vec.2", ptr %26, i64 %indvars.iv
  %31 = load i8, ptr %30, align 1, !tbaa !28
  %32 = zext i8 %31 to i32
  %33 = sdiv i32 %32, %22
  %34 = getelementptr inbounds nuw i8, ptr %30, i64 1
  %35 = load i8, ptr %34, align 1, !tbaa !28
  %36 = zext i8 %35 to i32
  %37 = sdiv i32 %36, %22
  %38 = getelementptr inbounds nuw i8, ptr %30, i64 2
  %39 = load i8, ptr %38, align 1, !tbaa !28
  %40 = zext i8 %39 to i32
  %41 = sdiv i32 %40, %22
  %42 = mul nsw i32 %24, %33
  %43 = add nsw i32 %42, %37
  %44 = mul nsw i32 %43, %24
  %45 = add nsw i32 %44, %41
  %46 = getelementptr inbounds nuw float, ptr %28, i64 %indvars.iv
  %47 = load float, ptr %46, align 4, !tbaa !29
  %48 = sext i32 %45 to i64
  %49 = getelementptr inbounds float, ptr %3, i64 %48
  %50 = load float, ptr %49, align 4, !tbaa !29
  %51 = fadd float %47, %50
  store float %51, ptr %49, align 4, !tbaa !29
  %indvars.iv.next = add nuw nsw i64 %indvars.iv, 1
  %exitcond.not = icmp eq i64 %indvars.iv.next, %wide.trip.count
  br i1 %exitcond.not, label %._crit_edge.us, label %29, !llvm.loop !39

._crit_edge.us:                                   ; preds = %29
  %indvars.iv.next32 = add nuw nsw i64 %indvars.iv31, 1
  %exitcond35.not = icmp eq i64 %indvars.iv.next32, %wide.trip.count34
  br i1 %exitcond35.not, label %._crit_edge28, label %.lr.ph.us, !llvm.loop !40

._crit_edge28:                                    ; preds = %._crit_edge.us, %.lr.ph27, %4
  ret void
}